; Function Attrs: mustprogress uwtable
define void @_ZN3gmx19GaussianOn1DLatticeC2Eif(ptr noundef nonnull writeonly align 8 captures(none) dereferenceable(8) %0, i32 noundef %1, float noundef %2) unnamed_addr #0 align 2 personality ptr @__gxx_personality_v0 {
  %4 = tail call noalias noundef nonnull dereferenceable(64) ptr @_Znwm(i64 noundef 64) #21
  invoke void @_ZN3gmx19GaussianOn1DLattice4ImplC1Eif(ptr noundef nonnull align 8 dereferenceable(64) %4, i32 noundef %1, float noundef %2)
          to label %5 unwind label %6

5:                                                ; preds = %3
  store ptr %4, ptr %0, align 8, !tbaa !28
  ret void

6:                                                ; preds = %3
  %7 = landingpad { ptr, i32 }
          cleanup
  tail call void @_ZdlPvm(ptr noundef nonnull %4, i64 noundef 64) #23
  resume { ptr, i32 } %7
}